target datalayout = "e-m:e-p270:32:32-p271:32:32-p272:64:64-i64:64-i128:128-f80:128-n8:16:32:64-S128"
target triple = "x86_64-pc-linux-gnu"

%struct.object_id = type { [32 x i8], i32 }
%struct.string_list = type { ptr, i64, i64, i8, ptr }
%struct.string_list_item = type { ptr, ptr }

; Function Attrs: inlinehint nounwind uwtable
define internal void @oidcpy(ptr noundef %0, ptr noundef %1) #5 {
  %3 = alloca ptr, align 8
  %4 = alloca ptr, align 8
  store ptr %0, ptr %3, align 8, !tbaa !101
  store ptr %1, ptr %4, align 8, !tbaa !101
  %5 = load ptr, ptr %3, align 8, !tbaa !101
  %6 = getelementptr inbounds nuw %struct.object_id, ptr %5, i32 0, i32 0
  %7 = getelementptr inbounds [32 x i8], ptr %6, i64 0, i64 0
  %8 = load ptr, ptr %4, align 8, !tbaa !101
  %9 = getelementptr inbounds nuw %struct.object_id, ptr %8, i32 0, i32 0
  %10 = getelementptr inbounds [32 x i8], ptr %9, i64 0, i64 0
  call void @llvm.memcpy.p0.p0.i64(ptr align 4 %7, ptr align 4 %10, i64 32, i1 false)
  %11 = load ptr, ptr %4, align 8, !tbaa !101
  %12 = getelementptr inbounds nuw %struct.object_id, ptr %11, i32 0, i32 1
  %13 = load i32, ptr %12, align 4, !tbaa !106
  %14 = load ptr, ptr %3, align 8, !tbaa !101
  %15 = getelementptr inbounds nuw %struct.object_id, ptr %14, i32 0, i32 1
  store i32 %13, ptr %15, align 4, !tbaa !106
  ret void
}

; Function Attrs: inlinehint nounwind uwtable
define internal ptr @oiddup(ptr noundef %0) #5 {
  %2 = alloca ptr, align 8
  %3 = alloca ptr, align 8
  store ptr %0, ptr %2, align 8, !tbaa !101
  call void @llvm.lifetime.start.p0(i64 8, ptr %3) #11
  %4 = call ptr @xmalloc(i64 noundef 36)
  store ptr %4, ptr %3, align 8, !tbaa !101
  %5 = load ptr, ptr %3, align 8, !tbaa !101
  %6 = load ptr, ptr %2, align 8, !tbaa !101
  call void @oidcpy(ptr noundef %5, ptr noundef %6)
  %7 = load ptr, ptr %3, align 8, !tbaa !101
  call void @llvm.lifetime.end.p0(i64 8, ptr %3) #11
  ret ptr %7
}

; Function Attrs: nounwind uwtable
define internal i32 @collect_tags(ptr noundef %0, ptr noundef %1, ptr noundef %2, ptr noundef %3) #0 {
  %5 = alloca ptr, align 8
  %6 = alloca ptr, align 8
  %7 = alloca ptr, align 8
  %8 = alloca ptr, align 8
  %9 = alloca ptr, align 8
  store ptr %0, ptr %5, align 8, !tbaa !11
  store ptr %1, ptr %6, align 8, !tbaa !11
  store ptr %2, ptr %7, align 8, !tbaa !101
  store ptr %3, ptr %8, align 8, !tbaa !88
  call void @llvm.lifetime.start.p0(i64 8, ptr %9) #11
  %10 = load ptr, ptr %8, align 8, !tbaa !88
  store ptr %10, ptr %9, align 8, !tbaa !121
  %11 = load ptr, ptr %9, align 8, !tbaa !121
  %12 = load ptr, ptr %6, align 8, !tbaa !11
  %13 = call ptr @string_list_append(ptr noundef %11, ptr noundef %12)
  %14 = load ptr, ptr %7, align 8, !tbaa !101
  %15 = call ptr @oiddup(ptr noundef %14)
  %16 = load ptr, ptr %9, align 8, !tbaa !121
  %17 = getelementptr inbounds nuw %struct.string_list, ptr %16, i32 0, i32 0
  %18 = load ptr, ptr %17, align 8, !tbaa !96
  %19 = load ptr, ptr %9, align 8, !tbaa !121
  %20 = getelementptr inbounds nuw %struct.string_list, ptr %19, i32 0, i32 1
  %21 = load i64, ptr %20, align 8, !tbaa !29
  %22 = sub i64 %21, 1
  %23 = getelementptr inbounds nuw %struct.string_list_item, ptr %18, i64 %22
  %24 = getelementptr inbounds nuw %struct.string_list_item, ptr %23, i32 0, i32 1
  store ptr %15, ptr %24, align 8, !tbaa !100
  call void @llvm.lifetime.end.p0(i64 8, ptr %9) #11
  ret i32 0
}