; Function Attrs: nounwind uwtable
define internal noundef i32 @collect_tags(ptr readnone captures(none) %0, ptr noundef %1, ptr noundef readonly captures(none) %2, ptr noundef %3) #0 {
  %5 = tail call ptr @string_list_append(ptr noundef %3, ptr noundef %1) #15
  %6 = tail call ptr @xmalloc(i64 noundef 36) #15
  tail call void @llvm.memcpy.p0.p0.i64(ptr noundef nonnull align 4 dereferenceable(32) %6, ptr noundef nonnull readonly align 4 dereferenceable(32) %2, i64 32, i1 false)
  %7 = getelementptr inbounds nuw i8, ptr %2, i64 32
  %8 = load i32, ptr %7, align 4, !tbaa !78
  %9 = getelementptr inbounds nuw i8, ptr %6, i64 32
  store i32 %8, ptr %9, align 4, !tbaa !78
  %10 = load ptr, ptr %3, align 8, !tbaa !50
  %11 = getelementptr inbounds nuw i8, ptr %3, i64 8
  %12 = load i64, ptr %11, align 8, !tbaa !24
  %13 = getelementptr %struct.string_list_item, ptr %10, i64 %12
  %14 = getelementptr i8, ptr %13, i64 -8
  store ptr %6, ptr %14, align 8, !tbaa !53
  ret i32 0
}